target datalayout = "e-m:e-p270:32:32-p271:32:32-p272:64:64-i64:64-i128:128-f80:128-n8:16:32:64-S128"
target triple = "x86_64-pc-linux-gnu"

%struct.OSQPSolver = type { ptr, ptr, ptr, ptr }
%struct.OSQPWorkspace_ = type { ptr, ptr, ptr, ptr, ptr, ptr, ptr, ptr, ptr, ptr, ptr, ptr, ptr, ptr, ptr, ptr, ptr, ptr, ptr, ptr, ptr, ptr, ptr, ptr, ptr, ptr, double, double, double, ptr, i64, i64, i64, i64, ptr }
%struct.OSQPData = type { i64, i64, ptr, ptr, ptr, ptr, ptr }
%struct.OSQPSettings = type { i64, i32, i64, i64, i64, i64, i64, i64, double, i64, double, double, i64, i64, double, i32, i64, i64, double, double, i64, double, double, double, double, i64, i64, double, double, i64 }
%struct.OSQPInfo = type { [32 x i8], i64, i64, double, double, double, i64, i64, double, double, double, double, double, double }

; Function Attrs: nounwind uwtable
define double @compute_rho_estimate(ptr noundef %0) #0 {
  %2 = alloca ptr, align 8
  %3 = alloca double, align 8
  %4 = alloca double, align 8
  %5 = alloca double, align 8
  %6 = alloca double, align 8
  %7 = alloca double, align 8
  %8 = alloca double, align 8
  %9 = alloca ptr, align 8
  %10 = alloca ptr, align 8
  store ptr %0, ptr %2, align 8
  %11 = load ptr, ptr %2, align 8
  %12 = getelementptr inbounds %struct.OSQPSolver, ptr %11, i32 0, i32 0
  %13 = load ptr, ptr %12, align 8
  store ptr %13, ptr %9, align 8
  %14 = load ptr, ptr %2, align 8
  %15 = getelementptr inbounds %struct.OSQPSolver, ptr %14, i32 0, i32 3
  %16 = load ptr, ptr %15, align 8
  store ptr %16, ptr %10, align 8
  %17 = load ptr, ptr %10, align 8
  %18 = getelementptr inbounds %struct.OSQPWorkspace_, ptr %17, i32 0, i32 26
  %19 = load double, ptr %18, align 8
  store double %19, ptr %3, align 8
  %20 = load ptr, ptr %10, align 8
  %21 = getelementptr inbounds %struct.OSQPWorkspace_, ptr %20, i32 0, i32 27
  %22 = load double, ptr %21, align 8
  store double %22, ptr %4, align 8
  %23 = load ptr, ptr %10, align 8
  %24 = getelementptr inbounds %struct.OSQPWorkspace_, ptr %23, i32 0, i32 8
  %25 = load ptr, ptr %24, align 8
  %26 = call double @OSQPVectorf_norm_inf(ptr noundef %25)
  store double %26, ptr %5, align 8
  %27 = load ptr, ptr %10, align 8
  %28 = getelementptr inbounds %struct.OSQPWorkspace_, ptr %27, i32 0, i32 14
  %29 = load ptr, ptr %28, align 8
  %30 = call double @OSQPVectorf_norm_inf(ptr noundef %29)
  store double %30, ptr %7, align 8
  %31 = load double, ptr %5, align 8
  %32 = load double, ptr %7, align 8
  %33 = fcmp ogt double %31, %32
  br i1 %33, label %34, label %36

34:                                               ; preds = %1
  %35 = load double, ptr %5, align 8
  br label %38

36:                                               ; preds = %1
  %37 = load double, ptr %7, align 8
  br label %38

38:                                               ; preds = %36, %34
  %39 = phi double [ %35, %34 ], [ %37, %36 ]
  store double %39, ptr %5, align 8
  %40 = load double, ptr %5, align 8
  %41 = fadd double %40, 0x39B4484BFEEBC29F
  %42 = load double, ptr %3, align 8
  %43 = fdiv double %42, %41
  store double %43, ptr %3, align 8
  %44 = load ptr, ptr %10, align 8
  %45 = getelementptr inbounds %struct.OSQPWorkspace_, ptr %44, i32 0, i32 0
  %46 = load ptr, ptr %45, align 8
  %47 = getelementptr inbounds %struct.OSQPData, ptr %46, i32 0, i32 4
  %48 = load ptr, ptr %47, align 8
  %49 = call double @OSQPVectorf_norm_inf(ptr noundef %48)
  store double %49, ptr %6, align 8
  %50 = load ptr, ptr %10, align 8
  %51 = getelementptr inbounds %struct.OSQPWorkspace_, ptr %50, i32 0, i32 16
  %52 = load ptr, ptr %51, align 8
  %53 = call double @OSQPVectorf_norm_inf(ptr noundef %52)
  store double %53, ptr %7, align 8
  %54 = load double, ptr %6, align 8
  %55 = load double, ptr %7, align 8
  %56 = fcmp ogt double %54, %55
  br i1 %56, label %57, label %59

57:                                               ; preds = %38
  %58 = load double, ptr %6, align 8
  br label %61

59:                                               ; preds = %38
  %60 = load double, ptr %7, align 8
  br label %61

61:                                               ; preds = %59, %57
  %62 = phi double [ %58, %57 ], [ %60, %59 ]
  store double %62, ptr %6, align 8
  %63 = load ptr, ptr %10, align 8
  %64 = getelementptr inbounds %struct.OSQPWorkspace_, ptr %63, i32 0, i32 15
  %65 = load ptr, ptr %64, align 8
  %66 = call double @OSQPVectorf_norm_inf(ptr noundef %65)
  store double %66, ptr %7, align 8
  %67 = load double, ptr %6, align 8
  %68 = load double, ptr %7, align 8
  %69 = fcmp ogt double %67, %68
  br i1 %69, label %70, label %72

70:                                               ; preds = %61
  %71 = load double, ptr %6, align 8
  br label %74

72:                                               ; preds = %61
  %73 = load double, ptr %7, align 8
  br label %74

74:                                               ; preds = %72, %70
  %75 = phi double [ %71, %70 ], [ %73, %72 ]
  store double %75, ptr %6, align 8
  %76 = load double, ptr %6, align 8
  %77 = fadd double %76, 0x39B4484BFEEBC29F
  %78 = load double, ptr %4, align 8
  %79 = fdiv double %78, %77
  store double %79, ptr %4, align 8
  %80 = load ptr, ptr %9, align 8
  %81 = getelementptr inbounds %struct.OSQPSettings, ptr %80, i32 0, i32 8
  %82 = load double, ptr %81, align 8
  %83 = load double, ptr %3, align 8
  %84 = load double, ptr %4, align 8
  %85 = fdiv double %83, %84
  %86 = call double @sqrt(double noundef %85) #4
  %87 = fmul double %82, %86
  store double %87, ptr %8, align 8
  %88 = load double, ptr %8, align 8
  %89 = fcmp ogt double %88, 0x3EB0C6F7A0B5ED8D
  br i1 %89, label %90, label %92

90:                                               ; preds = %74
  %91 = load double, ptr %8, align 8
  br label %93

92:                                               ; preds = %74
  br label %93

93:                                               ; preds = %92, %90
  %94 = phi double [ %91, %90 ], [ 0x3EB0C6F7A0B5ED8D, %92 ]
  %95 = fcmp olt double %94, 1.000000e+06
  br i1 %95, label %96, label %104

96:                                               ; preds = %93
  %97 = load double, ptr %8, align 8
  %98 = fcmp ogt double %97, 0x3EB0C6F7A0B5ED8D
  br i1 %98, label %99, label %101

99:                                               ; preds = %96
  %100 = load double, ptr %8, align 8
  br label %102

101:                                              ; preds = %96
  br label %102

102:                                              ; preds = %101, %99
  %103 = phi double [ %100, %99 ], [ 0x3EB0C6F7A0B5ED8D, %101 ]
  br label %105

104:                                              ; preds = %93
  br label %105

105:                                              ; preds = %104, %102
  %106 = phi double [ %103, %102 ], [ 1.000000e+06, %104 ]
  store double %106, ptr %8, align 8
  %107 = load double, ptr %8, align 8
  ret double %107
}

; Function Attrs: nounwind uwtable
define i64 @adapt_rho(ptr noundef %0) #0 {
  %2 = alloca ptr, align 8
  %3 = alloca i64, align 8
  %4 = alloca double, align 8
  %5 = alloca ptr, align 8
  %6 = alloca ptr, align 8
  store ptr %0, ptr %2, align 8
  %7 = load ptr, ptr %2, align 8
  %8 = getelementptr inbounds %struct.OSQPSolver, ptr %7, i32 0, i32 2
  %9 = load ptr, ptr %8, align 8
  store ptr %9, ptr %5, align 8
  %10 = load ptr, ptr %2, align 8
  %11 = getelementptr inbounds %struct.OSQPSolver, ptr %10, i32 0, i32 0
  %12 = load ptr, ptr %11, align 8
  store ptr %12, ptr %6, align 8
  store i64 0, ptr %3, align 8
  %13 = load ptr, ptr %2, align 8
  %14 = call double @compute_rho_estimate(ptr noundef %13)
  store double %14, ptr %4, align 8
  %15 = load double, ptr %4, align 8
  %16 = load ptr, ptr %5, align 8
  %17 = getelementptr inbounds %struct.OSQPInfo, ptr %16, i32 0, i32 8
  store double %15, ptr %17, align 8
  %18 = load double, ptr %4, align 8
  %19 = load ptr, ptr %6, align 8
  %20 = getelementptr inbounds %struct.OSQPSettings, ptr %19, i32 0, i32 8
  %21 = load double, ptr %20, align 8
  %22 = load ptr, ptr %6, align 8
  %23 = getelementptr inbounds %struct.OSQPSettings, ptr %22, i32 0, i32 19
  %24 = load double, ptr %23, align 8
  %25 = fmul double %21, %24
  %26 = fcmp ogt double %18, %25
  br i1 %26, label %37, label %27

27:                                               ; preds = %1
  %28 = load double, ptr %4, align 8
  %29 = load ptr, ptr %6, align 8
  %30 = getelementptr inbounds %struct.OSQPSettings, ptr %29, i32 0, i32 8
  %31 = load double, ptr %30, align 8
  %32 = load ptr, ptr %6, align 8
  %33 = getelementptr inbounds %struct.OSQPSettings, ptr %32, i32 0, i32 19
  %34 = load double, ptr %33, align 8
  %35 = fdiv double %31, %34
  %36 = fcmp olt double %28, %35
  br i1 %36, label %37, label %45

37:                                               ; preds = %27, %1
  %38 = load ptr, ptr %2, align 8
  %39 = load double, ptr %4, align 8
  %40 = call i64 @osqp_update_rho(ptr noundef %38, double noundef %39)
  store i64 %40, ptr %3, align 8
  %41 = load ptr, ptr %5, align 8
  %42 = getelementptr inbounds %struct.OSQPInfo, ptr %41, i32 0, i32 7
  %43 = load i64, ptr %42, align 8
  %44 = add nsw i64 %43, 1
  store i64 %44, ptr %42, align 8
  br label %45

45:                                               ; preds = %37, %27
  %46 = load i64, ptr %3, align 8
  ret i64 %46
}