; Function Attrs: nounwind uwtable
define i64 @adapt_rho(ptr noundef %0) local_unnamed_addr #0 {
  %2 = getelementptr inbounds nuw i8, ptr %0, i64 16
  %3 = load ptr, ptr %2, align 8
  %4 = load ptr, ptr %0, align 8
  %5 = getelementptr inbounds nuw i8, ptr %0, i64 24
  %6 = load ptr, ptr %5, align 8
  %7 = getelementptr inbounds nuw i8, ptr %6, i64 208
  %8 = load double, ptr %7, align 8
  %9 = getelementptr inbounds nuw i8, ptr %6, i64 216
  %10 = load double, ptr %9, align 8
  %11 = getelementptr inbounds nuw i8, ptr %6, i64 64
  %12 = load ptr, ptr %11, align 8
  %13 = tail call double @OSQPVectorf_norm_inf(ptr noundef %12) #9
  %14 = getelementptr inbounds nuw i8, ptr %6, i64 112
  %15 = load ptr, ptr %14, align 8
  %16 = tail call double @OSQPVectorf_norm_inf(ptr noundef %15) #9
  %17 = fcmp ogt double %13, %16
  %18 = select i1 %17, double %13, double %16
  %19 = fadd double %18, 0x39B4484BFEEBC29F
  %20 = fdiv double %8, %19
  %21 = load ptr, ptr %6, align 8
  %22 = getelementptr inbounds nuw i8, ptr %21, i64 32
  %23 = load ptr, ptr %22, align 8
  %24 = tail call double @OSQPVectorf_norm_inf(ptr noundef %23) #9
  %25 = getelementptr inbounds nuw i8, ptr %6, i64 128
  %26 = load ptr, ptr %25, align 8
  %27 = tail call double @OSQPVectorf_norm_inf(ptr noundef %26) #9
  %28 = fcmp ogt double %24, %27
  %29 = select i1 %28, double %24, double %27
  %30 = getelementptr inbounds nuw i8, ptr %6, i64 120
  %31 = load ptr, ptr %30, align 8
  %32 = tail call double @OSQPVectorf_norm_inf(ptr noundef %31) #9
  %33 = fcmp ogt double %29, %32
  %34 = select i1 %33, double %29, double %32
  %35 = fadd double %34, 0x39B4484BFEEBC29F
  %36 = fdiv double %10, %35
  %37 = getelementptr inbounds nuw i8, ptr %4, i64 64
  %38 = load double, ptr %37, align 8
  %39 = fdiv double %20, %36
  %40 = tail call double @sqrt(double noundef %39) #9
  %41 = fmul double %38, %40
  %42 = fcmp ogt double %41, 0x3EB0C6F7A0B5ED8D
  %43 = select i1 %42, double %41, double 0x3EB0C6F7A0B5ED8D
  %44 = fcmp olt double %43, 1.000000e+06
  %45 = select i1 %44, double %43, double 1.000000e+06
  %46 = getelementptr inbounds nuw i8, ptr %3, i64 88
  store double %45, ptr %46, align 8
  %47 = load double, ptr %37, align 8
  %48 = getelementptr inbounds nuw i8, ptr %4, i64 152
  %49 = load double, ptr %48, align 8
  %50 = fmul double %47, %49
  %51 = fcmp ogt double %45, %50
  %52 = fdiv double %47, %49
  %53 = fcmp olt double %45, %52
  %or.cond = or i1 %51, %53
  br i1 %or.cond, label %54, label %59

54:                                               ; preds = %1
  %55 = tail call i64 @osqp_update_rho(ptr noundef nonnull %0, double noundef %45) #9
  %56 = getelementptr inbounds nuw i8, ptr %3, i64 80
  %57 = load i64, ptr %56, align 8
  %58 = add nsw i64 %57, 1
  store i64 %58, ptr %56, align 8
  br label %59

59:                                               ; preds = %1, %54
  %.0 = phi i64 [ %55, %54 ], [ 0, %1 ]
  ret i64 %.0
}